EXPORTS
	_ZN12CIROTAUpdate10ConstructLEv @ 1  NONAME
	_ZN12CIROTAUpdate10SetVersionERK7TDesC16 @ 2  NONAME
	_ZN12CIROTAUpdate12InternalizeLER11RReadStream @ 3  NONAME
	_ZN12CIROTAUpdate15SetUpdateMethodERK7TDesC16 @ 4  NONAME
	_ZN12CIROTAUpdate17SetUpdateIntervalERK7TDesC16 @ 5  NONAME
	_ZN12CIROTAUpdate4NewLEv @ 6  NONAME
	_ZN12CIROTAUpdate5NewLCEv @ 7  NONAME
	_ZN12CIROTAUpdate9SetOTAUrlERK7TDesC16 @ 8  NONAME
	_ZN13CIRIsdsPreset10SetGenreIdERK7TDesC16 @ 9  NONAME
	_ZN13CIRIsdsPreset11SetLangCodeERK7TDesC16 @ 10  NONAME
	_ZN13CIRIsdsPreset11SetLangInfoERK7TDesC16S2_ @ 11  NONAME
	_ZN13CIRIsdsPreset11SetLogoDataERK6TDesC8 @ 12  NONAME
	_ZN13CIRIsdsPreset11SetUrlCountEi @ 13  NONAME
	_ZN13CIRIsdsPreset11SetUrlCountEv @ 14  NONAME
	_ZN13CIRIsdsPreset12ExternalizeLER12RWriteStream @ 15  NONAME
	_ZN13CIRIsdsPreset12InternalizeLER11RReadStream @ 16  NONAME
	_ZN13CIRIsdsPreset12SetGenreInfoERK7TDesC16S2_ @ 17  NONAME
	_ZN13CIRIsdsPreset12SetGenreNameERK7TDesC16 @ 18  NONAME
	_ZN13CIRIsdsPreset12SetShortDescERK7TDesC16 @ 19  NONAME
	_ZN13CIRIsdsPreset14SetChannelTypeEi @ 20  NONAME
	_ZN13CIRIsdsPreset14SetCountryCodeERK7TDesC16 @ 21  NONAME
	_ZN13CIRIsdsPreset14SetCountryInfoERK7TDesC16S2_ @ 22  NONAME
	_ZN13CIRIsdsPreset14SetCountryNameERK7TDesC16 @ 23  NONAME
	_ZN13CIRIsdsPreset14SetDescriptionERK7TDesC16 @ 24  NONAME
	_ZN13CIRIsdsPreset17GetUrlForBitrateLEi @ 25  NONAME
	_ZN13CIRIsdsPreset18GetChannelBitrateLEi @ 26  NONAME
	_ZN13CIRIsdsPreset19SetAdvertisementUrlERK7TDesC16 @ 27  NONAME
	_ZN13CIRIsdsPreset19SetLastModifiedTimeERK7TDesC16 @ 28  NONAME
	_ZN13CIRIsdsPreset19SetMusicStoreStatusERK7TDesC16 @ 29  NONAME
	_ZN13CIRIsdsPreset21SetAdvertisementInUseERK7TDesC16 @ 30  NONAME
	_ZN13CIRIsdsPreset22GetExactUrlForBitrateLEi @ 31  NONAME
	_ZN13CIRIsdsPreset4NewLEv @ 32  NONAME
	_ZN13CIRIsdsPreset5NewLCEv @ 33  NONAME
	_ZN13CIRIsdsPreset5SetIdERK7TDesC16 @ 34  NONAME
	_ZN13CIRIsdsPreset5SetIdEi @ 35  NONAME
	_ZN13CIRIsdsPreset6GetUrlEi @ 36  NONAME
	_ZN13CIRIsdsPreset7SetLangERK7TDesC16 @ 37  NONAME
	_ZN13CIRIsdsPreset7SetNameERK7TDesC16 @ 38  NONAME
	_ZN13CIRIsdsPreset7SetUrlLERK7TDesC16 @ 39  NONAME
	_ZN13CIRIsdsPreset7SetUrlLERK7TDesC16S2_S2_ @ 40  NONAME
	_ZN13CIRIsdsPreset7SetUrlLERK7TDesC16S2_i @ 41  NONAME
	_ZN13CIRIsdsPreset8SetIndexEi @ 42  NONAME
	_ZN13CIRIsdsPreset9SetImgUrlERK7TDesC16 @ 43  NONAME
	_ZN13CIRIsdsPreset9SetUniqIdEm @ 44  NONAME
	_ZN13CIRIsdsPresetC1Ev @ 45  NONAME
	_ZN13CIRIsdsPresetC2Ev @ 46  NONAME
	_ZN13CIRIsdsPresetaSERKS_ @ 47  NONAME
	_ZN16CIRAdvertisement11SetAdvInUseERK7TDesC16 @ 48  NONAME
	_ZN16CIRAdvertisement14SetVisibleTimeERK7TDesC16 @ 49  NONAME
	_ZN16CIRAdvertisement4NewLEv @ 50  NONAME
	_ZN16CIRAdvertisement5NewLCEv @ 51  NONAME
	_ZN16CIRAdvertisement6SetURLERK7TDesC16 @ 52  NONAME
	_ZN16CIRAdvertisement8SetUsageERK7TDesC16 @ 53  NONAME
	_ZN18CIRLastPlayedSongs11GetSongNameEv @ 54  NONAME
	_ZN18CIRLastPlayedSongs11SetSongNameERK7TDesC16 @ 55  NONAME
	_ZN18CIRLastPlayedSongs12ExternalizeLER12RWriteStream @ 56  NONAME
	_ZN18CIRLastPlayedSongs12InternalizeLER11RReadStream @ 57  NONAME
	_ZN18CIRLastPlayedSongs13GetArtistNameEv @ 58  NONAME
	_ZN18CIRLastPlayedSongs13SetArtistNameERK7TDesC16 @ 59  NONAME
	_ZN18CIRLastPlayedSongs4NewLEv @ 60  NONAME
	_ZN18CIRLastPlayedSongs5NewLCEv @ 61  NONAME
	_ZN18CIRLastPlayedSongsaSERKS_ @ 62  NONAME
	_ZN19CIRChannelServerUrl10SetBitRateEi @ 63  NONAME
	_ZN19CIRChannelServerUrl12ExternalizeLER12RWriteStream @ 64  NONAME
	_ZN19CIRChannelServerUrl12InternalizeLER11RReadStream @ 65  NONAME
	_ZN19CIRChannelServerUrl12SetServerUrlERK7TDesC16 @ 66  NONAME
	_ZN19CIRChannelServerUrl13SetServerNameERK7TDesC16 @ 67  NONAME
	_ZN19CIRChannelServerUrl4NewLEv @ 68  NONAME
	_ZN19CIRChannelServerUrl5NewLCEv @ 69  NONAME
	_ZN19CIRChannelServerUrlaSERKS_ @ 70  NONAME
	_ZN21CIRBrowseChannelItems10SetBitrateERK7TDesC16 @ 71  NONAME
	_ZN21CIRBrowseChannelItems10SetBitrateERK7TDesC16S2_ @ 72  NONAME
	_ZN21CIRBrowseChannelItems10SetBitrateERK7TDesC16S2_S2_ @ 73  NONAME
	_ZN21CIRBrowseChannelItems11SetImageUrlERK7TDesC16 @ 74  NONAME
	_ZN21CIRBrowseChannelItems12InternalizeLER11RReadStream @ 75  NONAME
	_ZN21CIRBrowseChannelItems12SetBannerUrlERK7TDesC16 @ 76  NONAME
	_ZN21CIRBrowseChannelItems16SetGetOperationLERK7TDesC16 @ 77  NONAME
	_ZN21CIRBrowseChannelItems18SetClickThroughUrlERK7TDesC16 @ 78  NONAME
	_ZN21CIRBrowseChannelItems4NewLEv @ 79  NONAME
	_ZN21CIRBrowseChannelItems5NewLCEv @ 80  NONAME
	_ZN21CIRBrowseChannelItems7SetSizeERK7TDesC16 @ 81  NONAME
	_ZN21CIRBrowseChannelItems8SetTextLERK7TDesC16S2_S2_ @ 82  NONAME
	_ZN22CIRBrowseCatagoryItems12InternalizeLER11RReadStream @ 83  NONAME
	_ZN22CIRBrowseCatagoryItems12SetBannerUrlERK7TDesC16 @ 84  NONAME
	_ZN22CIRBrowseCatagoryItems15SetGetOperationERK7TDesC16 @ 85  NONAME
	_ZN22CIRBrowseCatagoryItems18SetClickThroughUrlERK7TDesC16 @ 86  NONAME
	_ZN22CIRBrowseCatagoryItems4NewLEv @ 87  NONAME
	_ZN22CIRBrowseCatagoryItems5NewLCEv @ 88  NONAME
	_ZN22CIRBrowseCatagoryItems7SetSizeERK7TDesC16 @ 89  NONAME
	_ZN22CIRBrowseCatagoryItems8SetTextLERK7TDesC16S2_ @ 90  NONAME
	_ZNK12CIROTAUpdate12ExternalizeLER12RWriteStream @ 91  NONAME
	_ZNK13CIRIsdsPreset10GetGenreIdEv @ 92  NONAME
	_ZNK13CIRIsdsPreset11GetLangNameEv @ 93  NONAME
	_ZNK13CIRIsdsPreset11GetLogoDataEv @ 94  NONAME
	_ZNK13CIRIsdsPreset11GetUrlCountEv @ 95  NONAME
	_ZNK13CIRIsdsPreset12GetCountryIdEv @ 96  NONAME
	_ZNK13CIRIsdsPreset12GetGenreNameEv @ 97  NONAME
	_ZNK13CIRIsdsPreset14GetChannelTypeEv @ 98  NONAME
	_ZNK13CIRIsdsPreset14GetCountryNameEv @ 99  NONAME
	_ZNK13CIRIsdsPreset14GetDescriptionEv @ 100  NONAME
	_ZNK13CIRIsdsPreset16GetChannelUrlAtLEi @ 101  NONAME
	_ZNK13CIRIsdsPreset19GetAdvertisementUrlEv @ 102  NONAME
	_ZNK13CIRIsdsPreset19GetLastModifiedTimeEv @ 103  NONAME
	_ZNK13CIRIsdsPreset19GetMusicStoreStatusEv @ 104  NONAME
	_ZNK13CIRIsdsPreset19GetShortDescriptionEv @ 105  NONAME
	_ZNK13CIRIsdsPreset20GetAvailableBitratesER6RArrayIiE @ 106  NONAME
	_ZNK13CIRIsdsPreset21GetAdvertisementInUseEv @ 107  NONAME
	_ZNK13CIRIsdsPreset5GetIdEv @ 108  NONAME
	_ZNK13CIRIsdsPreset6UniqIdEv @ 109  NONAME
	_ZNK13CIRIsdsPreset7GetNameEv @ 110  NONAME
	_ZNK13CIRIsdsPreset8GetIndexEv @ 111  NONAME
	_ZNK13CIRIsdsPreset9GetImgUrlEv @ 112  NONAME
	_ZNK13CIRIsdsPreset9GetLangIdEv @ 113  NONAME
	_ZNK16CIRAdvertisement10ConstructLEv @ 114  NONAME
	_ZNK19CIRChannelServerUrl10GetBitRateEv @ 115  NONAME
	_ZNK19CIRChannelServerUrl12GetServerUrlEv @ 116  NONAME
	_ZNK19CIRChannelServerUrl13GetServerNameEv @ 117  NONAME
	_ZNK21CIRBrowseChannelItems12ExternalizeLER12RWriteStream @ 118  NONAME
	_ZNK22CIRBrowseCatagoryItems12ExternalizeLER12RWriteStream @ 119  NONAME
	_ZTI12CIROTAUpdate @ 120  NONAME ; #<TI>#
	_ZTI13CIRIsdsPreset @ 121  NONAME ; #<TI>#
	_ZTI16CIRAdvertisement @ 122  NONAME ; #<TI>#
	_ZTI18CIRLastPlayedSongs @ 123  NONAME ; #<TI>#
	_ZTI19CIRChannelServerUrl @ 124  NONAME ; #<TI>#
	_ZTI21CIRBrowseChannelItems @ 125  NONAME ; #<TI>#
	_ZTI22CIRBrowseCatagoryItems @ 126  NONAME ; #<TI>#
	_ZTV12CIROTAUpdate @ 127  NONAME ; #<VT>#
	_ZTV13CIRIsdsPreset @ 128  NONAME ; #<VT>#
	_ZTV16CIRAdvertisement @ 129  NONAME ; #<VT>#
	_ZTV18CIRLastPlayedSongs @ 130  NONAME ; #<VT>#
	_ZTV19CIRChannelServerUrl @ 131  NONAME ; #<VT>#
	_ZTV21CIRBrowseChannelItems @ 132  NONAME ; #<VT>#
	_ZTV22CIRBrowseCatagoryItems @ 133  NONAME ; #<VT>#

