EXPORTS
	_ZN19CIRSettingsViewBase11DoActivateLERK10TVwsViewId4TUidRK6TDesC8 @ 1 NONAME
	_ZN19CIRSettingsViewBase12DoDeactivateEv @ 2 NONAME
	_ZN19CIRSettingsViewBase13ResolveDriveLERK3RFsR4TBufILi256EE @ 3 NONAME
	_ZN19CIRSettingsViewBase14BaseConstructLEv @ 4 NONAME
	_ZN19CIRSettingsViewBase14HandleCommandLEi @ 5 NONAME
	_ZN19CIRSettingsViewBase14LoadResourcesLER19RConeResourceLoaderRK7TDesC16 @ 6 NONAME
	_ZN19CIRSettingsViewBase22HandleForegroundEventLEi @ 7 NONAME
	_ZN19CIRSettingsViewBase9SetTitleLEi @ 8 NONAME
	_ZN19CIRSettingsViewBaseC2Ev @ 9 NONAME
	_ZN19CIRSettingsViewBaseD0Ev @ 10 NONAME
	_ZN19CIRSettingsViewBaseD1Ev @ 11 NONAME
	_ZN19CIRSettingsViewBaseD2Ev @ 12 NONAME
	_ZN26CIRCommonSettingsContainer11SizeChangedEv @ 13 NONAME
	_ZN26CIRCommonSettingsContainer14BaseConstructLEv @ 14 NONAME
	_ZN26CIRCommonSettingsContainer18CreateSettingItemLEi @ 15 NONAME
	_ZN26CIRCommonSettingsContainer4NewLEv @ 16 NONAME
	_ZN26CIRCommonSettingsContainer9EditItemLEii @ 17 NONAME
	_ZN26CIRCommonSettingsContainerC1Ev @ 18 NONAME
	_ZN26CIRCommonSettingsContainerC2Ev @ 19 NONAME
	_ZN26CIRCommonSettingsContainerD0Ev @ 20 NONAME
	_ZN26CIRCommonSettingsContainerD1Ev @ 21 NONAME
	_ZN26CIRCommonSettingsContainerD2Ev @ 22 NONAME
	_ZNK19CIRSettingsViewBase11GetCaptionLER6TDes16 @ 23 NONAME
	_ZNK26CIRCommonSettingsContainer14GetHelpContextER15TCoeHelpContext @ 24 NONAME
	_ZTI19CIRSettingsViewBase @ 25 NONAME
	_ZTI26CIRCommonSettingsContainer @ 26 NONAME
	_ZTV19CIRSettingsViewBase @ 27 NONAME
	_ZTV26CIRCommonSettingsContainer @ 28 NONAME

