EXPORTS
	?NewLC@CIRBrowseChannelItems@@SAPAV1@XZ @ 1  NONAME ; class CIRBrowseChannelItems * CIRBrowseChannelItems::NewLC(void)
	?SetSize@CIRBrowseChannelItems@@QAEXABVTDesC16@@@Z @ 2  NONAME ; void CIRBrowseChannelItems::SetSize(class TDesC16 const &)
	?GetUrl@CIRIsdsPreset@@QAEAAVCIRChannelServerUrl@@H@Z @ 3  NONAME ; class CIRChannelServerUrl & CIRIsdsPreset::GetUrl(int)
	?ExternalizeL@CIRLastPlayedSongs@@QAEXAAVRWriteStream@@@Z @ 4  NONAME ; void CIRLastPlayedSongs::ExternalizeL(class RWriteStream &)
	?GetShortDescription@CIRIsdsPreset@@QBEABVTDesC16@@XZ @ 5  NONAME ; class TDesC16 const & CIRIsdsPreset::GetShortDescription(void) const
	?GetLastModifiedTime@CIRIsdsPreset@@QBEABVTDesC16@@XZ @ 6  NONAME ; class TDesC16 const & CIRIsdsPreset::GetLastModifiedTime(void) const
	?GetLangId@CIRIsdsPreset@@QBEABVTDesC16@@XZ @ 7  NONAME ; class TDesC16 const & CIRIsdsPreset::GetLangId(void) const
	?SetLastModifiedTime@CIRIsdsPreset@@QAEXABVTDesC16@@@Z @ 8  NONAME ; void CIRIsdsPreset::SetLastModifiedTime(class TDesC16 const &)
	?GetGenreName@CIRIsdsPreset@@QBEABVTDesC16@@XZ @ 9  NONAME ; class TDesC16 const & CIRIsdsPreset::GetGenreName(void) const
	?GetGenreId@CIRIsdsPreset@@QBEABVTDesC16@@XZ @ 10  NONAME ; class TDesC16 const & CIRIsdsPreset::GetGenreId(void) const
	?SetLangCode@CIRIsdsPreset@@QAEXABVTDesC16@@@Z @ 11  NONAME ; void CIRIsdsPreset::SetLangCode(class TDesC16 const &)
	?SetName@CIRIsdsPreset@@QAEXABVTDesC16@@@Z @ 12  NONAME ; void CIRIsdsPreset::SetName(class TDesC16 const &)
	?SetUsage@CIRAdvertisement@@QAEXABVTDesC16@@@Z @ 13  NONAME ; void CIRAdvertisement::SetUsage(class TDesC16 const &)
	?SetImgUrl@CIRIsdsPreset@@QAEXABVTDesC16@@@Z @ 14  NONAME ; void CIRIsdsPreset::SetImgUrl(class TDesC16 const &)
	?NewL@CIROTAUpdate@@SAPAV1@XZ @ 15  NONAME ; class CIROTAUpdate * CIROTAUpdate::NewL(void)
	?GetUrlForBitrateL@CIRIsdsPreset@@QAEPAVCDesC16ArrayFlat@@H@Z @ 16  NONAME ; class CDesC16ArrayFlat * CIRIsdsPreset::GetUrlForBitrateL(int)
	??4CIRIsdsPreset@@QAEAAV0@ABV0@@Z @ 17  NONAME ; class CIRIsdsPreset & CIRIsdsPreset::operator=(class CIRIsdsPreset const &)
	?SetImageUrl@CIRBrowseChannelItems@@QAEXABVTDesC16@@@Z @ 18  NONAME ; void CIRBrowseChannelItems::SetImageUrl(class TDesC16 const &)
	?SetVisibleTime@CIRAdvertisement@@QAEXABVTDesC16@@@Z @ 19  NONAME ; void CIRAdvertisement::SetVisibleTime(class TDesC16 const &)
	?GetSongName@CIRLastPlayedSongs@@QAEAAVTDesC16@@XZ @ 20  NONAME ; class TDesC16 & CIRLastPlayedSongs::GetSongName(void)
	?GetCountryName@CIRIsdsPreset@@QBEABVTDesC16@@XZ @ 21  NONAME ; class TDesC16 const & CIRIsdsPreset::GetCountryName(void) const
	?SetDescription@CIRIsdsPreset@@QAEXABVTDesC16@@@Z @ 22  NONAME ; void CIRIsdsPreset::SetDescription(class TDesC16 const &)
	?SetChannelType@CIRIsdsPreset@@QAEXH@Z @ 23  NONAME ; void CIRIsdsPreset::SetChannelType(int)
	?ConstructL@CIRAdvertisement@@QBEXXZ @ 24  NONAME ; void CIRAdvertisement::ConstructL(void) const
	?InternalizeL@CIRChannelServerUrl@@QAEXAAVRReadStream@@@Z @ 25  NONAME ; void CIRChannelServerUrl::InternalizeL(class RReadStream &)
	?GetChannelType@CIRIsdsPreset@@QBEHXZ @ 26  NONAME ; int CIRIsdsPreset::GetChannelType(void) const
	?SetLangInfo@CIRIsdsPreset@@QAEXABVTDesC16@@0@Z @ 27  NONAME ; void CIRIsdsPreset::SetLangInfo(class TDesC16 const &, class TDesC16 const &)
	?SetShortDesc@CIRIsdsPreset@@QAEXABVTDesC16@@@Z @ 28  NONAME ; void CIRIsdsPreset::SetShortDesc(class TDesC16 const &)
	?SetBitrate@CIRBrowseChannelItems@@QAEXABVTDesC16@@00@Z @ 29  NONAME ; void CIRBrowseChannelItems::SetBitrate(class TDesC16 const &, class TDesC16 const &, class TDesC16 const &)
	?GetMusicStoreStatus@CIRIsdsPreset@@QBEABVTDesC16@@XZ @ 30  NONAME ; class TDesC16 const & CIRIsdsPreset::GetMusicStoreStatus(void) const
	?SetClickThroughUrl@CIRBrowseCatagoryItems@@QAEXABVTDesC16@@@Z @ 31  NONAME ; void CIRBrowseCatagoryItems::SetClickThroughUrl(class TDesC16 const &)
	?NewLC@CIRLastPlayedSongs@@SAPAV1@XZ @ 32  NONAME ; class CIRLastPlayedSongs * CIRLastPlayedSongs::NewLC(void)
	?NewLC@CIRChannelServerUrl@@SAPAV1@XZ @ 33  NONAME ; class CIRChannelServerUrl * CIRChannelServerUrl::NewLC(void)
	?InternalizeL@CIRIsdsPreset@@QAEXAAVRReadStream@@@Z @ 34  NONAME ; void CIRIsdsPreset::InternalizeL(class RReadStream &)
	?SetUrlCount@CIRIsdsPreset@@QAEXXZ @ 35  NONAME ; void CIRIsdsPreset::SetUrlCount(void)
	?SetLogoData@CIRIsdsPreset@@QAEXABVTDesC8@@@Z @ 36  NONAME ; void CIRIsdsPreset::SetLogoData(class TDesC8 const &)
	?SetGenreInfo@CIRIsdsPreset@@QAEXABVTDesC16@@0@Z @ 37  NONAME ; void CIRIsdsPreset::SetGenreInfo(class TDesC16 const &, class TDesC16 const &)
	?SetBitrate@CIRBrowseChannelItems@@QAEXABVTDesC16@@@Z @ 38  NONAME ; void CIRBrowseChannelItems::SetBitrate(class TDesC16 const &)
	?NewL@CIRAdvertisement@@SAPAV1@XZ @ 39  NONAME ; class CIRAdvertisement * CIRAdvertisement::NewL(void)
	?SetAdvertisementInUse@CIRIsdsPreset@@QAEXABVTDesC16@@@Z @ 40  NONAME ; void CIRIsdsPreset::SetAdvertisementInUse(class TDesC16 const &)
	?NewL@CIRChannelServerUrl@@SAPAV1@XZ @ 41  NONAME ; class CIRChannelServerUrl * CIRChannelServerUrl::NewL(void)
	?GetUrlCount@CIRIsdsPreset@@QBEHXZ @ 42  NONAME ; int CIRIsdsPreset::GetUrlCount(void) const
	?NewL@CIRLastPlayedSongs@@SAPAV1@XZ @ 43  NONAME ; class CIRLastPlayedSongs * CIRLastPlayedSongs::NewL(void)
	?NewL@CIRIsdsPreset@@SAPAV1@XZ @ 44  NONAME ; class CIRIsdsPreset * CIRIsdsPreset::NewL(void)
	?SetCountryCode@CIRIsdsPreset@@QAEXABVTDesC16@@@Z @ 45  NONAME ; void CIRIsdsPreset::SetCountryCode(class TDesC16 const &)
	?SetClickThroughUrl@CIRBrowseChannelItems@@QAEXABVTDesC16@@@Z @ 46  NONAME ; void CIRBrowseChannelItems::SetClickThroughUrl(class TDesC16 const &)
	?GetDescription@CIRIsdsPreset@@QBEABVTDesC16@@XZ @ 47  NONAME ; class TDesC16 const & CIRIsdsPreset::GetDescription(void) const
	?SetSize@CIRBrowseCatagoryItems@@QAEXABVTDesC16@@@Z @ 48  NONAME ; void CIRBrowseCatagoryItems::SetSize(class TDesC16 const &)
	?ExternalizeL@CIRChannelServerUrl@@QAEXAAVRWriteStream@@@Z @ 49  NONAME ; void CIRChannelServerUrl::ExternalizeL(class RWriteStream &)
	?SetServerUrl@CIRChannelServerUrl@@QAEXABVTDesC16@@@Z @ 50  NONAME ; void CIRChannelServerUrl::SetServerUrl(class TDesC16 const &)
	?SetGetOperationL@CIRBrowseChannelItems@@QAEXABVTDesC16@@@Z @ 51  NONAME ; void CIRBrowseChannelItems::SetGetOperationL(class TDesC16 const &)
	?NewLC@CIRIsdsPreset@@SAPAV1@XZ @ 52  NONAME ; class CIRIsdsPreset * CIRIsdsPreset::NewLC(void)
	?InternalizeL@CIROTAUpdate@@QAEXAAVRReadStream@@@Z @ 53  NONAME ; void CIROTAUpdate::InternalizeL(class RReadStream &)
	?GetCountryId@CIRIsdsPreset@@QBEABVTDesC16@@XZ @ 54  NONAME ; class TDesC16 const & CIRIsdsPreset::GetCountryId(void) const
	?GetImgUrl@CIRIsdsPreset@@QBEABVTDesC16@@XZ @ 55  NONAME ; class TDesC16 const & CIRIsdsPreset::GetImgUrl(void) const
	?SetUrlL@CIRIsdsPreset@@QAEXABVTDesC16@@0H@Z @ 56  NONAME ; void CIRIsdsPreset::SetUrlL(class TDesC16 const &, class TDesC16 const &, int)
	?SetAdvertisementUrl@CIRIsdsPreset@@QAEXABVTDesC16@@@Z @ 57  NONAME ; void CIRIsdsPreset::SetAdvertisementUrl(class TDesC16 const &)
	?GetServerUrl@CIRChannelServerUrl@@QBEABVTDesC16@@XZ @ 58  NONAME ; class TDesC16 const & CIRChannelServerUrl::GetServerUrl(void) const
	?SetCountryInfo@CIRIsdsPreset@@QAEXABVTDesC16@@0@Z @ 59  NONAME ; void CIRIsdsPreset::SetCountryInfo(class TDesC16 const &, class TDesC16 const &)
	?NewLC@CIRAdvertisement@@SAPAV1@XZ @ 60  NONAME ; class CIRAdvertisement * CIRAdvertisement::NewLC(void)
	?NewLC@CIRBrowseCatagoryItems@@SAPAV1@XZ @ 61  NONAME ; class CIRBrowseCatagoryItems * CIRBrowseCatagoryItems::NewLC(void)
	?SetGetOperation@CIRBrowseCatagoryItems@@QAEXABVTDesC16@@@Z @ 62  NONAME ; void CIRBrowseCatagoryItems::SetGetOperation(class TDesC16 const &)
	?ExternalizeL@CIROTAUpdate@@QBEXAAVRWriteStream@@@Z @ 63  NONAME ; void CIROTAUpdate::ExternalizeL(class RWriteStream &) const
	?GetName@CIRIsdsPreset@@QBEABVTDesC16@@XZ @ 64  NONAME ; class TDesC16 const & CIRIsdsPreset::GetName(void) const
	?GetServerName@CIRChannelServerUrl@@QBEABVTDesC16@@XZ @ 65  NONAME ; class TDesC16 const & CIRChannelServerUrl::GetServerName(void) const
	?SetTextL@CIRBrowseChannelItems@@QAEXABVTDesC16@@00@Z @ 66  NONAME ; void CIRBrowseChannelItems::SetTextL(class TDesC16 const &, class TDesC16 const &, class TDesC16 const &)
	?SetGenreName@CIRIsdsPreset@@QAEXABVTDesC16@@@Z @ 67  NONAME ; void CIRIsdsPreset::SetGenreName(class TDesC16 const &)
	?GetChannelBitrateL@CIRIsdsPreset@@QAEHH@Z @ 68  NONAME ; int CIRIsdsPreset::GetChannelBitrateL(int)
	?GetId@CIRIsdsPreset@@QBEHXZ @ 69  NONAME ; int CIRIsdsPreset::GetId(void) const
	?GetLangName@CIRIsdsPreset@@QBEABVTDesC16@@XZ @ 70  NONAME ; class TDesC16 const & CIRIsdsPreset::GetLangName(void) const
	?SetOTAUrl@CIROTAUpdate@@QAEXABVTDesC16@@@Z @ 71  NONAME ; void CIROTAUpdate::SetOTAUrl(class TDesC16 const &)
	?GetArtistName@CIRLastPlayedSongs@@QAEAAVTDesC16@@XZ @ 72  NONAME ; class TDesC16 & CIRLastPlayedSongs::GetArtistName(void)
	?SetId@CIRIsdsPreset@@QAEXH@Z @ 73  NONAME ; void CIRIsdsPreset::SetId(int)
	?SetUrlCount@CIRIsdsPreset@@QAEXH@Z @ 74  NONAME ; void CIRIsdsPreset::SetUrlCount(int)
	?ConstructL@CIROTAUpdate@@QAEXXZ @ 75  NONAME ; void CIROTAUpdate::ConstructL(void)
	?InternalizeL@CIRBrowseCatagoryItems@@QAEXAAVRReadStream@@@Z @ 76  NONAME ; void CIRBrowseCatagoryItems::InternalizeL(class RReadStream &)
	?SetURL@CIRAdvertisement@@QAEXABVTDesC16@@@Z @ 77  NONAME ; void CIRAdvertisement::SetURL(class TDesC16 const &)
	?ExternalizeL@CIRBrowseChannelItems@@QBEXAAVRWriteStream@@@Z @ 78  NONAME ; void CIRBrowseChannelItems::ExternalizeL(class RWriteStream &) const
	?GetBitRate@CIRChannelServerUrl@@QBEHXZ @ 79  NONAME ; int CIRChannelServerUrl::GetBitRate(void) const
	?NewLC@CIROTAUpdate@@SAPAV1@XZ @ 80  NONAME ; class CIROTAUpdate * CIROTAUpdate::NewLC(void)
	?SetUpdateInterval@CIROTAUpdate@@QAEXABVTDesC16@@@Z @ 81  NONAME ; void CIROTAUpdate::SetUpdateInterval(class TDesC16 const &)
	?ExternalizeL@CIRBrowseCatagoryItems@@QBEXAAVRWriteStream@@@Z @ 82  NONAME ; void CIRBrowseCatagoryItems::ExternalizeL(class RWriteStream &) const
	?GetAvailableBitrates@CIRIsdsPreset@@QBEHAAV?$RArray@H@@@Z @ 83  NONAME ; int CIRIsdsPreset::GetAvailableBitrates(class RArray<int> &) const
	?SetGenreId@CIRIsdsPreset@@QAEXABVTDesC16@@@Z @ 84  NONAME ; void CIRIsdsPreset::SetGenreId(class TDesC16 const &)
	?ExternalizeL@CIRIsdsPreset@@QAEXAAVRWriteStream@@@Z @ 85  NONAME ; void CIRIsdsPreset::ExternalizeL(class RWriteStream &)
	?GetChannelUrlAtL@CIRIsdsPreset@@QBEABVTDesC16@@H@Z @ 86  NONAME ; class TDesC16 const & CIRIsdsPreset::GetChannelUrlAtL(int) const
	?GetExactUrlForBitrateL@CIRIsdsPreset@@QAEPAVCDesC16ArrayFlat@@H@Z @ 87  NONAME ; class CDesC16ArrayFlat * CIRIsdsPreset::GetExactUrlForBitrateL(int)
	?SetBitrate@CIRBrowseChannelItems@@QAEXABVTDesC16@@0@Z @ 88  NONAME ; void CIRBrowseChannelItems::SetBitrate(class TDesC16 const &, class TDesC16 const &)
	?SetSongName@CIRLastPlayedSongs@@QAEXABVTDesC16@@@Z @ 89  NONAME ; void CIRLastPlayedSongs::SetSongName(class TDesC16 const &)
	?NewL@CIRBrowseChannelItems@@SAPAV1@XZ @ 90  NONAME ; class CIRBrowseChannelItems * CIRBrowseChannelItems::NewL(void)
	?SetTextL@CIRBrowseCatagoryItems@@QAEXABVTDesC16@@0@Z @ 91  NONAME ; void CIRBrowseCatagoryItems::SetTextL(class TDesC16 const &, class TDesC16 const &)
	?SetId@CIRIsdsPreset@@QAEXABVTDesC16@@@Z @ 92  NONAME ; void CIRIsdsPreset::SetId(class TDesC16 const &)
	?SetArtistName@CIRLastPlayedSongs@@QAEXABVTDesC16@@@Z @ 93  NONAME ; void CIRLastPlayedSongs::SetArtistName(class TDesC16 const &)
	?InternalizeL@CIRBrowseChannelItems@@QAEXAAVRReadStream@@@Z @ 94  NONAME ; void CIRBrowseChannelItems::InternalizeL(class RReadStream &)
	?SetUpdateMethod@CIROTAUpdate@@QAEXABVTDesC16@@@Z @ 95  NONAME ; void CIROTAUpdate::SetUpdateMethod(class TDesC16 const &)
	?SetLang@CIRIsdsPreset@@QAEXABVTDesC16@@@Z @ 96  NONAME ; void CIRIsdsPreset::SetLang(class TDesC16 const &)
	?GetAdvertisementUrl@CIRIsdsPreset@@QBEABVTDesC16@@XZ @ 97  NONAME ; class TDesC16 const & CIRIsdsPreset::GetAdvertisementUrl(void) const
	??4CIRChannelServerUrl@@QAEAAV0@ABV0@@Z @ 98  NONAME ; class CIRChannelServerUrl & CIRChannelServerUrl::operator=(class CIRChannelServerUrl const &)
	??4CIRLastPlayedSongs@@QAEAAV0@ABV0@@Z @ 99  NONAME ; class CIRLastPlayedSongs & CIRLastPlayedSongs::operator=(class CIRLastPlayedSongs const &)
	?SetUrlL@CIRIsdsPreset@@QAEXABVTDesC16@@00@Z @ 100  NONAME ; void CIRIsdsPreset::SetUrlL(class TDesC16 const &, class TDesC16 const &, class TDesC16 const &)
	?SetBannerUrl@CIRBrowseChannelItems@@QAEXABVTDesC16@@@Z @ 101  NONAME ; void CIRBrowseChannelItems::SetBannerUrl(class TDesC16 const &)
	?SetCountryName@CIRIsdsPreset@@QAEXABVTDesC16@@@Z @ 102  NONAME ; void CIRIsdsPreset::SetCountryName(class TDesC16 const &)
	?SetBannerUrl@CIRBrowseCatagoryItems@@QAEXABVTDesC16@@@Z @ 103  NONAME ; void CIRBrowseCatagoryItems::SetBannerUrl(class TDesC16 const &)
	?SetServerName@CIRChannelServerUrl@@QAEXABVTDesC16@@@Z @ 104  NONAME ; void CIRChannelServerUrl::SetServerName(class TDesC16 const &)
	?SetBitRate@CIRChannelServerUrl@@QAEXH@Z @ 105  NONAME ; void CIRChannelServerUrl::SetBitRate(int)
	?SetMusicStoreStatus@CIRIsdsPreset@@QAEXABVTDesC16@@@Z @ 106  NONAME ; void CIRIsdsPreset::SetMusicStoreStatus(class TDesC16 const &)
	?GetAdvertisementInUse@CIRIsdsPreset@@QBEABVTDesC16@@XZ @ 107  NONAME ; class TDesC16 const & CIRIsdsPreset::GetAdvertisementInUse(void) const
	?SetAdvInUse@CIRAdvertisement@@QAEXABVTDesC16@@@Z @ 108  NONAME ; void CIRAdvertisement::SetAdvInUse(class TDesC16 const &)
	?InternalizeL@CIRLastPlayedSongs@@QAEXAAVRReadStream@@@Z @ 109  NONAME ; void CIRLastPlayedSongs::InternalizeL(class RReadStream &)
	?SetVersion@CIROTAUpdate@@QAEXABVTDesC16@@@Z @ 110  NONAME ; void CIROTAUpdate::SetVersion(class TDesC16 const &)
	?NewL@CIRBrowseCatagoryItems@@SAPAV1@XZ @ 111  NONAME ; class CIRBrowseCatagoryItems * CIRBrowseCatagoryItems::NewL(void)
	?GetLogoData@CIRIsdsPreset@@QBEABVTDesC8@@XZ @ 112  NONAME ; class TDesC8 const & CIRIsdsPreset::GetLogoData(void) const

