EXPORTS
	?BrowseUrl@CIRReportGenerator@@QAEXABVTDesC16@@H@Z @ 1  NONAME ; void CIRReportGenerator::BrowseUrl(class TDesC16 const &, int)
	?HandleStopEvents@CIRReportGenerator@@QAEXH@Z @ 2  NONAME ; void CIRReportGenerator::HandleStopEvents(int)
	?LogBrowse@CIRReportGenerator@@QAEXABVTDesC8@@H@Z @ 3  NONAME ; void CIRReportGenerator::LogBrowse(class TDesC8 const &, int)
	?LogServerResult@CIRReportGenerator@@QAEXABVTDesC16@@W4TResponse@@@Z @ 4  NONAME ; void CIRReportGenerator::LogServerResult(class TDesC16 const &, enum TResponse)
	?LogSongRecog@CIRReportGenerator@@QAEXXZ @ 5  NONAME ; void CIRReportGenerator::LogSongRecog(void)
	?MarkSessionStart@CIRReportGenerator@@QAEXXZ @ 6  NONAME ; void CIRReportGenerator::MarkSessionStart(void)
	?NmsLogStartedL@CIRReportGenerator@@QAEXXZ @ 7  NONAME ; void CIRReportGenerator::NmsLogStartedL(void)
	?OpenL@CIRReportGenerator@@SAPAV1@XZ @ 8  NONAME ; class CIRReportGenerator * CIRReportGenerator::OpenL(void)
	?ReStorePreviousSession@CIRReportGenerator@@QAEHXZ @ 9  NONAME ; int CIRReportGenerator::ReStorePreviousSession(void)
	?ReponseFromISDSObtained@CIRReportGenerator@@QAEXXZ @ 10  NONAME ; void CIRReportGenerator::ReponseFromISDSObtained(void)
	?ReportSent@CIRReportGenerator@@QAEXXZ @ 11  NONAME ; void CIRReportGenerator::ReportSent(void)
	?SessionEndL@CIRReportGenerator@@QAEXH@Z @ 12  NONAME ; void CIRReportGenerator::SessionEndL(int)
	?SessionStartedL@CIRReportGenerator@@QAEXXZ @ 13  NONAME ; void CIRReportGenerator::SessionStartedL(void)
	?SetDbStatusObserser@CIRReportGenerator@@QAEXPAVMIRLogDbStatusObserver@@@Z @ 14  NONAME ; void CIRReportGenerator::SetDbStatusObserser(class MIRLogDbStatusObserver *)
	?UpdateChannelID@CIRReportGenerator@@QAEXH@Z @ 15  NONAME ; void CIRReportGenerator::UpdateChannelID(int)
	?UpdateConnectedFrom@CIRReportGenerator@@QAEXW4TConnectedFrom@@@Z @ 16  NONAME ; void CIRReportGenerator::UpdateConnectedFrom(enum TConnectedFrom)
	?UpdateConnectionType@CIRReportGenerator@@QAEXABVTDesC16@@@Z @ 17  NONAME ; void CIRReportGenerator::UpdateConnectionType(class TDesC16 const &)
	?UpdateCurrentBrowseNetwork@CIRReportGenerator@@QAEXH@Z @ 18  NONAME ; void CIRReportGenerator::UpdateCurrentBrowseNetwork(int)
	?UpdateCurrentNetwork@CIRReportGenerator@@QAEXH@Z @ 19  NONAME ; void CIRReportGenerator::UpdateCurrentNetwork(int)
	?UpdateHomeOperator@CIRReportGenerator@@QAEXH@Z @ 20  NONAME ; void CIRReportGenerator::UpdateHomeOperator(int)
	?UpdateNmsChannelID@CIRReportGenerator@@QAEXH@Z @ 21  NONAME ; void CIRReportGenerator::UpdateNmsChannelID(int)
	?UpdateNmsCurrentNetwork@CIRReportGenerator@@QAEXH@Z @ 22  NONAME ; void CIRReportGenerator::UpdateNmsCurrentNetwork(int)
	?UpdateNmsHomeOperator@CIRReportGenerator@@QAEXH@Z @ 23  NONAME ; void CIRReportGenerator::UpdateNmsHomeOperator(int)
	?UpdateNmsType@CIRReportGenerator@@QAEXABVTDesC16@@@Z @ 24  NONAME ; void CIRReportGenerator::UpdateNmsType(class TDesC16 const &)
	?UpdateTerminatedBy@CIRReportGenerator@@QAEXW4TTerminationStatus@@@Z @ 25  NONAME ; void CIRReportGenerator::UpdateTerminatedBy(enum TTerminationStatus)
	?WriteNmsLogtoXmlL@CIRReportGenerator@@QAEXXZ @ 26  NONAME ; void CIRReportGenerator::WriteNmsLogtoXmlL(void)

