EXPORTS
	?DisplayAccessPointL@CIRSettings@@QBEHXZ @ 1  NONAME ; int CIRSettings::DisplayAccessPointL(void) const
	?Get3GBitrateQuality@CIRSettings@@QBEHXZ @ 2  NONAME ; int CIRSettings::Get3GBitrateQuality(void) const
	?GetApIdL@CIRSettings@@QBEKXZ @ 3  NONAME ; unsigned long CIRSettings::GetApIdL(void) const
	?GetBearerIdL@CIRSettings@@QBEKXZ @ 4  NONAME ; unsigned long CIRSettings::GetBearerIdL(void) const
	?GetDestinationIdL@CIRSettings@@QBEKXZ @ 5  NONAME ; unsigned long CIRSettings::GetDestinationIdL(void) const
	?GetGPRSBitrateQuality@CIRSettings@@QBEHXZ @ 6  NONAME ; int CIRSettings::GetGPRSBitrateQuality(void) const
	?GetIRIDL@CIRSettings@@QBEABVTDesC16@@XZ @ 7  NONAME ; class TDesC16 const & CIRSettings::GetIRIDL(void) const
	?GetISDSBaseUrlL@CIRSettings@@QBEABVTDesC16@@XZ @ 8  NONAME ; class TDesC16 const & CIRSettings::GetISDSBaseUrlL(void) const
	?GetIrappVersionL@CIRSettings@@QBEABVTDesC16@@XZ @ 9  NONAME ; class TDesC16 const & CIRSettings::GetIrappVersionL(void) const
	?GetLogRunningNo@CIRSettings@@QBEHXZ @ 10  NONAME ; int CIRSettings::GetLogRunningNo(void) const
	?GetManuallyAddedChId@CIRSettings@@QBEHXZ @ 11  NONAME ; int CIRSettings::GetManuallyAddedChId(void) const
	?GetNetworkIdL@CIRSettings@@QBEKXZ @ 12  NONAME ; unsigned long CIRSettings::GetNetworkIdL(void) const
	?GetPreferredQuality@CIRSettings@@QBEHXZ @ 13  NONAME ; int CIRSettings::GetPreferredQuality(void) const
	?GetSilencePeriodL@CIRSettings@@QBEIXZ @ 14  NONAME ; unsigned int CIRSettings::GetSilencePeriodL(void) const
	?GetSilencePeriodStartL@CIRSettings@@QBEABVTDesC16@@XZ @ 15  NONAME ; class TDesC16 const & CIRSettings::GetSilencePeriodStartL(void) const
	?GetStartingViewIdL@CIRSettings@@QBEKXZ @ 16  NONAME ; unsigned long CIRSettings::GetStartingViewIdL(void) const
	?GetStartingViewParameterL@CIRSettings@@QBEKXZ @ 17  NONAME ; unsigned long CIRSettings::GetStartingViewParameterL(void) const
	?GetStereoMode@CIRSettings@@QAEHXZ @ 18  NONAME ; int CIRSettings::GetStereoMode(void)
	?GetStickyViewFlagL@CIRSettings@@QAEHXZ @ 19  NONAME ; int CIRSettings::GetStickyViewFlagL(void)
	?GetTimeOut@CIRSettings@@QBEHXZ @ 20  NONAME ; int CIRSettings::GetTimeOut(void) const
	?GetUserDefinedSelectionL@CIRSettings@@QBEKXZ @ 21  NONAME ; unsigned long CIRSettings::GetUserDefinedSelectionL(void) const
	?GetUserSavedApSettingsL@CIRSettings@@QBEXAAK00@Z @ 22  NONAME ; void CIRSettings::GetUserSavedApSettingsL(unsigned long &, unsigned long &, unsigned long &) const
	?GetVolumeSetting@CIRSettings@@QBEHXZ @ 23  NONAME ; int CIRSettings::GetVolumeSetting(void) const
	?GetWiFiBitrateQuality@CIRSettings@@QBEHXZ @ 24  NONAME ; int CIRSettings::GetWiFiBitrateQuality(void) const
	?IsFlagCostWarningL@CIRSettings@@QAEHXZ @ 25  NONAME ; int CIRSettings::IsFlagCostWarningL(void)
	?IsFlagIfAnyFavL@CIRSettings@@QAEHXZ @ 26  NONAME ; int CIRSettings::IsFlagIfAnyFavL(void)
	?IsFlagTermsAndConditionsL@CIRSettings@@QAEHXZ @ 27  NONAME ; int CIRSettings::IsFlagTermsAndConditionsL(void)
	?IsUpdateAvailableL@CIRSettings@@QAEHXZ @ 28  NONAME ; int CIRSettings::IsUpdateAvailableL(void)
	?MaxPresetCount@CIRSettings@@QAEHXZ @ 29  NONAME ; int CIRSettings::MaxPresetCount(void)
	?OpenL@CIRSettings@@SAPAV1@XZ @ 30  NONAME ; class CIRSettings * CIRSettings::OpenL(void)
	?PrivatePath@CIRSettings@@QBEABVTDesC16@@XZ @ 31  NONAME ; class TDesC16 const & CIRSettings::PrivatePath(void) const
	?ReSetDisplayAccessPointL@CIRSettings@@QAEXXZ @ 32  NONAME ; void CIRSettings::ReSetDisplayAccessPointL(void)
	?ReSetFlagCostWarningL@CIRSettings@@QAEXXZ @ 33  NONAME ; void CIRSettings::ReSetFlagCostWarningL(void)
	?ReSetFlagTermsAndConditionsL@CIRSettings@@QAEXXZ @ 34  NONAME ; void CIRSettings::ReSetFlagTermsAndConditionsL(void)
	?ReSetUpdateAvailableL@CIRSettings@@QAEXXZ @ 35  NONAME ; void CIRSettings::ReSetUpdateAvailableL(void)
	?Set3GBitrateQualityL@CIRSettings@@QAEXH@Z @ 36  NONAME ; void CIRSettings::Set3GBitrateQualityL(int)
	?SetApIdL@CIRSettings@@QAEXK@Z @ 37  NONAME ; void CIRSettings::SetApIdL(unsigned long)
	?SetBearerIdL@CIRSettings@@QAEXK@Z @ 38  NONAME ; void CIRSettings::SetBearerIdL(unsigned long)
	?SetDestinationIdL@CIRSettings@@QAEXK@Z @ 39  NONAME ; void CIRSettings::SetDestinationIdL(unsigned long)
	?SetDisplayAccessPointL@CIRSettings@@QAEXXZ @ 40  NONAME ; void CIRSettings::SetDisplayAccessPointL(void)
	?SetFlagCostWarningL@CIRSettings@@QAEXXZ @ 41  NONAME ; void CIRSettings::SetFlagCostWarningL(void)
	?SetFlagIfAnyFavL@CIRSettings@@QAEXXZ @ 42  NONAME ; void CIRSettings::SetFlagIfAnyFavL(void)
	?SetFlagTermsAndConditionsL@CIRSettings@@QAEXXZ @ 43  NONAME ; void CIRSettings::SetFlagTermsAndConditionsL(void)
	?SetGPRSBitrateQualityL@CIRSettings@@QAEXH@Z @ 44  NONAME ; void CIRSettings::SetGPRSBitrateQualityL(int)
	?SetIRIDL@CIRSettings@@QAEXABVTDesC16@@@Z @ 45  NONAME ; void CIRSettings::SetIRIDL(class TDesC16 const &)
	?SetISDSBaseUrlL@CIRSettings@@QAEXABVTDesC16@@@Z @ 46  NONAME ; void CIRSettings::SetISDSBaseUrlL(class TDesC16 const &)
	?SetIrappVersionL@CIRSettings@@QAEXABVTDesC16@@@Z @ 47  NONAME ; void CIRSettings::SetIrappVersionL(class TDesC16 const &)
	?SetLogRunningNoL@CIRSettings@@QAEXXZ @ 48  NONAME ; void CIRSettings::SetLogRunningNoL(void)
	?SetManuallyAddedChIdL@CIRSettings@@QAEXXZ @ 49  NONAME ; void CIRSettings::SetManuallyAddedChIdL(void)
	?SetMaxPresetCountL@CIRSettings@@QAEXH@Z @ 50  NONAME ; void CIRSettings::SetMaxPresetCountL(int)
	?SetNetworkIdL@CIRSettings@@QAEXK@Z @ 51  NONAME ; void CIRSettings::SetNetworkIdL(unsigned long)
	?SetPreferredQualityL@CIRSettings@@QAEXH@Z @ 52  NONAME ; void CIRSettings::SetPreferredQualityL(int)
	?SetSilencePeriodL@CIRSettings@@QAEXI@Z @ 53  NONAME ; void CIRSettings::SetSilencePeriodL(unsigned int)
	?SetSilencePeriodStartL@CIRSettings@@QAEXABVTDesC16@@@Z @ 54  NONAME ; void CIRSettings::SetSilencePeriodStartL(class TDesC16 const &)
	?SetStartingViewIdL@CIRSettings@@QAEXK@Z @ 55  NONAME ; void CIRSettings::SetStartingViewIdL(unsigned long)
	?SetStartingViewParameterL@CIRSettings@@QAEXK@Z @ 56  NONAME ; void CIRSettings::SetStartingViewParameterL(unsigned long)
	?SetStereoModeL@CIRSettings@@QAEXH@Z @ 57  NONAME ; void CIRSettings::SetStereoModeL(int)
	?SetStickyViewFlagL@CIRSettings@@QAEXH@Z @ 58  NONAME ; void CIRSettings::SetStickyViewFlagL(int)
	?SetSubscriberIdL@CIRSettings@@QAEXABV?$TBuf@$0P@@@@Z @ 59  NONAME ; void CIRSettings::SetSubscriberIdL(class TBuf<15> const &)
	?SetTimeCorrectionL@CIRSettings@@QAEXH@Z @ 60  NONAME ; void CIRSettings::SetTimeCorrectionL(int)
	?SetTimeOutL@CIRSettings@@QAEXH@Z @ 61  NONAME ; void CIRSettings::SetTimeOutL(int)
	?SetUpdateAvailableL@CIRSettings@@QAEXXZ @ 62  NONAME ; void CIRSettings::SetUpdateAvailableL(void)
	?SetUserDefinedSelectionL@CIRSettings@@QAEXK@Z @ 63  NONAME ; void CIRSettings::SetUserDefinedSelectionL(unsigned long)
	?SetUserSavedApSettingsL@CIRSettings@@QAEXKKK@Z @ 64  NONAME ; void CIRSettings::SetUserSavedApSettingsL(unsigned long, unsigned long, unsigned long)
	?SetVolumeSettingL@CIRSettings@@QAEXH@Z @ 65  NONAME ; void CIRSettings::SetVolumeSettingL(int)
	?SetWiFiBitrateQualityL@CIRSettings@@QAEXH@Z @ 66  NONAME ; void CIRSettings::SetWiFiBitrateQualityL(int)
	?SubscriberIdL@CIRSettings@@QBEABV?$TBuf@$0P@@@XZ @ 67  NONAME ; class TBuf<15> const & CIRSettings::SubscriberIdL(void) const
	?TimeCorrection@CIRSettings@@QBEHXZ @ 68  NONAME ; int CIRSettings::TimeCorrection(void) const
	?GetSongHistoryShow@CIRSettings@@QBEHXZ @ 69  NONAME ; int CIRSettings::GetSongHistoryShow(void) const
	?SetSongHisotryShowL@CIRSettings@@QAEXH@Z @ 70  NONAME ; void CIRSettings::SetSongHisotryShowL(int)
	?GetGlobalAdvFlagL@CIRSettings@@QAEHXZ @ 71  NONAME ; int CIRSettings::GetGlobalAdvFlagL(void)

