EXPORTS
	??0CIRAPListBox@@QAE@AAVCDesC16ArrayFlat@@@Z @ 1 NONAME ; CIRAPListBox::CIRAPListBox(class CDesC16ArrayFlat &)
	??0CIRLaf@@QAE@ABVTRect@@@Z @ 2 NONAME ; CIRLaf::CIRLaf(class TRect const &)
	??0CIRListBox@@QAE@PAVCIRLaf@@@Z @ 3 NONAME ; CIRListBox::CIRListBox(class CIRLaf *)
	??0CIRSettingListBox@@QAE@PAVCIRLaf@@@Z @ 4 NONAME ; CIRSettingListBox::CIRSettingListBox(class CIRLaf *)
	??0CIRSettingPopupListBox@@QAE@PAVCIRLaf@@@Z @ 5 NONAME ; CIRSettingPopupListBox::CIRSettingPopupListBox(class CIRLaf *)
	??0CIconFileProvider@@QAE@XZ @ 6 NONAME ; CIconFileProvider::CIconFileProvider(void)
	?ChangeColor@CIRStatusControlPane@@QAEXABVTRgb@@@Z @ 7 NONAME ; void CIRStatusControlPane::ChangeColor(class TRgb const &)
	?ChangePanePosition@CIRStatusControlPane@@QAEXVTPoint@@@Z @ 8 NONAME ; void CIRStatusControlPane::ChangePanePosition(class TPoint)
	?ChangeResolution@CIRLaf@@QAEXABVTRect@@@Z @ 9 NONAME ; void CIRLaf::ChangeResolution(class TRect const &)
	?ClearAllFlags@CIRListBox@@QAEXXZ @ 10 NONAME ; void CIRListBox::ClearAllFlags(void)
	?ConstructL@CIRAPListBox@@QAEXXZ @ 11 NONAME ; void CIRAPListBox::ConstructL(void)
	?ConstructL@CIRListBox@@QAEXPBVCCoeControl@@@Z @ 12 NONAME ; void CIRListBox::ConstructL(class CCoeControl const *)
	?ConstructL@CIRSettingListBox@@QAEXPBVCCoeControl@@@Z @ 13 NONAME ; void CIRSettingListBox::ConstructL(class CCoeControl const *)
	?ConstructL@CIRSettingPopupListBox@@QAEXPBVCCoeControl@@@Z @ 14 NONAME ; void CIRSettingPopupListBox::ConstructL(class CCoeControl const *)
	?CreateIconL@CIconFileProvider@@QBEPAVCFbsBitmap@@H@Z @ 15 NONAME ; class CFbsBitmap * CIconFileProvider::CreateIconL(int) const
	?CreateIconL@CIconFileProvider@@QBEPAVCGulIcon@@HH@Z @ 16 NONAME ; class CGulIcon * CIconFileProvider::CreateIconL(int, int) const
	?CurrentMultiSelectedList@CIRListBox@@QBE?AV?$RArray@H@@XZ @ 17 NONAME ; class RArray<int> CIRListBox::CurrentMultiSelectedList(void) const
	?CurrentSelectedIndex@CIRAPListBox@@IBEHXZ @ 18 NONAME ; int CIRAPListBox::CurrentSelectedIndex(void) const
	?CurrentSelectedIndex@CIRListBox@@QBEHXZ @ 19 NONAME ; int CIRListBox::CurrentSelectedIndex(void) const
	?CurrentSelectedIndex@CIRSettingListBox@@QBEHXZ @ 20 NONAME ; int CIRSettingListBox::CurrentSelectedIndex(void) const
	?CurrentSelectedIndex@CIRSettingPopupListBox@@QBEHXZ @ 21 NONAME ; int CIRSettingPopupListBox::CurrentSelectedIndex(void) const
	?DisplayAccessPointLD@CIRAPListBox@@QAEHXZ @ 22 NONAME ; int CIRAPListBox::DisplayAccessPointLD(void)
	?HandleMultiSelect@CIRListBox@@QAEXW4TIRHandleMultiSelection@1@@Z @ 23 NONAME ; void CIRListBox::HandleMultiSelect(enum CIRListBox::TIRHandleMultiSelection)
	?LeftOptionText@CIRStatusControlPane@@QBEPBVTDesC16@@XZ @ 24 NONAME ; class TDesC16 const * CIRStatusControlPane::LeftOptionText(void) const
	?MarkingSelectedIndex@CIRListBox@@QAEXHH@Z @ 25 NONAME ; void CIRListBox::MarkingSelectedIndex(int, int)
	?MiddleOptionText@CIRStatusControlPane@@QBEPBVTDesC16@@XZ @ 26 NONAME ; class TDesC16 const * CIRStatusControlPane::MiddleOptionText(void) const
	?NewL@CIRStatusControlPane@@SAPAV1@ABVTRect@@AAVCIRLaf@@@Z @ 27 NONAME ; class CIRStatusControlPane * CIRStatusControlPane::NewL(class TRect const &, class CIRLaf &)
	?NewL@CIconFileProvider@@SAPAV1@ABVTDesC16@@@Z @ 28 NONAME ; class CIconFileProvider * CIconFileProvider::NewL(class TDesC16 const &)
	?NewLC@CIRStatusControlPane@@SAPAV1@ABVTRect@@AAVCIRLaf@@@Z @ 29 NONAME ; class CIRStatusControlPane * CIRStatusControlPane::NewLC(class TRect const &, class CIRLaf &)
	?OfferKeyEventL@CIRAPListBox@@MAE?AW4TKeyResponse@@ABUTKeyEvent@@W4TEventCode@@@Z @ 30 NONAME ; enum TKeyResponse CIRAPListBox::OfferKeyEventL(struct TKeyEvent const &, enum TEventCode)
	?OfferKeyEventL@CIRListBox@@UAE?AW4TKeyResponse@@ABUTKeyEvent@@W4TEventCode@@@Z @ 31 NONAME ; enum TKeyResponse CIRListBox::OfferKeyEventL(struct TKeyEvent const &, enum TEventCode)
	?OfferKeyEventL@CIRSettingListBox@@UAE?AW4TKeyResponse@@ABUTKeyEvent@@W4TEventCode@@@Z @ 32 NONAME ; enum TKeyResponse CIRSettingListBox::OfferKeyEventL(struct TKeyEvent const &, enum TEventCode)
	?OfferKeyEventL@CIRSettingPopupListBox@@UAE?AW4TKeyResponse@@ABUTKeyEvent@@W4TEventCode@@@Z @ 33 NONAME ; enum TKeyResponse CIRSettingPopupListBox::OfferKeyEventL(struct TKeyEvent const &, enum TEventCode)
	?OfferKeyEventL@CIRStatusControlPane@@UAE?AW4TKeyResponse@@ABUTKeyEvent@@W4TEventCode@@@Z @ 34 NONAME ; enum TKeyResponse CIRStatusControlPane::OfferKeyEventL(struct TKeyEvent const &, enum TEventCode)
	?RightOptionText@CIRStatusControlPane@@QBEPBVTDesC16@@XZ @ 35 NONAME ; class TDesC16 const * CIRStatusControlPane::RightOptionText(void) const
	?SetCurrentChosenIndex@CIRSettingPopupListBox@@QAEXH@Z @ 36 NONAME ; void CIRSettingPopupListBox::SetCurrentChosenIndex(int)
	?SetCurrentSelectedIndex@CIRListBox@@QAEXH@Z @ 37 NONAME ; void CIRListBox::SetCurrentSelectedIndex(int)
	?SetCurrentSelectedIndex@CIRSettingListBox@@QAEXH@Z @ 38 NONAME ; void CIRSettingListBox::SetCurrentSelectedIndex(int)
	?SetCurrentSelectedIndex@CIRSettingPopupListBox@@QAEXH@Z @ 39 NONAME ; void CIRSettingPopupListBox::SetCurrentSelectedIndex(int)
	?SetDataArrayL@CIRListBox@@QAEXPBVMDesC16Array@@@Z @ 40 NONAME ; void CIRListBox::SetDataArrayL(class MDesC16Array const *)
	?SetDataArrayL@CIRSettingListBox@@QAEXPBVMDesC16Array@@@Z @ 41 NONAME ; void CIRSettingListBox::SetDataArrayL(class MDesC16Array const *)
	?SetDataArrayL@CIRSettingPopupListBox@@QAEXPBVMDesC16Array@@@Z @ 42 NONAME ; void CIRSettingPopupListBox::SetDataArrayL(class MDesC16Array const *)
	?SetHeaderTextL@CIRStatusControlPane@@QAEXABVTDesC16@@@Z @ 43 NONAME ; void CIRStatusControlPane::SetHeaderTextL(class TDesC16 const &)
	?SetIconArray@CIRListBox@@QAEXABV?$RPointerArray@VCGulIcon@@@@H@Z @ 44 NONAME ; void CIRListBox::SetIconArray(class RPointerArray<class CGulIcon> const &, int)
	?SetLSKTextL@CIRStatusControlPane@@QAEXABVTDesC16@@@Z @ 45 NONAME ; void CIRStatusControlPane::SetLSKTextL(class TDesC16 const &)
	?SetMSKTextL@CIRStatusControlPane@@QAEXABVTDesC16@@@Z @ 46 NONAME ; void CIRStatusControlPane::SetMSKTextL(class TDesC16 const &)
	?SetRSKTextL@CIRStatusControlPane@@QAEXABVTDesC16@@@Z @ 47 NONAME ; void CIRStatusControlPane::SetRSKTextL(class TDesC16 const &)
	?SetSettings@CIRListBox@@QAEXHHHH@Z @ 48 NONAME ; void CIRListBox::SetSettings(int, int, int, int)
	?SetStatusTextL@CIRStatusControlPane@@QAEXABVTDesC16@@000@Z @ 49 NONAME ; void CIRStatusControlPane::SetStatusTextL(class TDesC16 const &, class TDesC16 const &, class TDesC16 const &, class TDesC16 const &)
	?SizeChanged@CIRListBox@@UAEXXZ @ 50 NONAME ; void CIRListBox::SizeChanged(void)
	?SizeChanged@CIRSettingListBox@@UAEXXZ @ 51 NONAME ; void CIRSettingListBox::SizeChanged(void)
	?SizeChanged@CIRSettingPopupListBox@@UAEXXZ @ 52 NONAME ; void CIRSettingPopupListBox::SizeChanged(void)
	?TitleText@CIRStatusControlPane@@QBEPBVTDesC16@@XZ @ 53 NONAME ; class TDesC16 const * CIRStatusControlPane::TitleText(void) const

