EXPORTS
	_ZN11IRQSettings10getTimeOutEv @ 1 NONAME
	_ZN11IRQSettings10setTimeOutEi @ 2 NONAME
	_ZN11IRQSettings11privatePathEv @ 3 NONAME
	_ZN11IRQSettings12openInstanceEv @ 4 NONAME
	_ZN11IRQSettings13closeInstanceEv @ 5 NONAME
	_ZN11IRQSettings14maxPresetCountEv @ 6 NONAME
	_ZN11IRQSettings16getGlobalAdvFlagERb @ 7 NONAME
	_ZN11IRQSettings16getVolumeSettingEv @ 8 NONAME
	_ZN11IRQSettings16setVolumeSettingEi @ 9 NONAME
	_ZN11IRQSettings17getStartingViewIdER9TIRViewId @ 10 NONAME
	_ZN11IRQSettings17setMaxPresetCountEi @ 11 NONAME
	_ZN11IRQSettings17setStartingViewIdEm @ 12 NONAME
	_ZN11IRQSettings18getSongHistoryShowEv @ 13 NONAME
	_ZN11IRQSettings18setSongHistoryShowEi @ 14 NONAME
	_ZN11IRQSettings19setPreferredQualityE19IRQPreferredQuality @ 15 NONAME
	_ZN11IRQSettings24isFlagTermsAndConditionsERb @ 16 NONAME
	_ZN11IRQSettings25setFlagTermsAndConditionsEv @ 17 NONAME
	_ZN11IRQSettings27reSetFlagTermsAndConditionsEv @ 18 NONAME
	_ZN11IRQSettings29getManuallyInputtedStationUrlER7QString @ 19 NONAME
	_ZN11IRQSettings29setManuallyInputtedStationUrlERK7QString @ 20 NONAME
	_ZN11IRQSettings30getManuallyInputtedStationNameER7QString @ 21 NONAME
	_ZN11IRQSettings30setManuallyInputtedStationNameERK7QString @ 22 NONAME
	_ZN11IRQSettings7getIRIDER7QString @ 23 NONAME
	_ZNK11IRQSettings19getPreferredQualityEv @ 24 NONAME

