EXPORTS
	_ZN11IRQSongInfo10setAllInfoERK7QStringS2_S2_ @ 1 NONAME
	_ZN11IRQSongInfo11setSongNameERK7QString @ 2 NONAME
	_ZN11IRQSongInfo13setArtistNameERK7QString @ 3 NONAME
	_ZN11IRQSongInfo18setMusicshopStatusERK7QString @ 4 NONAME
	_ZN18CIRSongHistoryInfo14SetHistoryInfoER6RBuf16S1_S1_S1_iiiS1_S1_S1_S1_S1_S1_ @ 5 NONAME
	_ZN18CIRSongHistoryInfo4NewLEv @ 6 NONAME
	_ZN18CIRSongHistoryInfo5NewLCEv @ 7 NONAME
	_ZN18CIRSongHistoryInfoD0Ev @ 8 NONAME
	_ZN18CIRSongHistoryInfoD1Ev @ 9 NONAME
	_ZN18CIRSongHistoryInfoD2Ev @ 10 NONAME
	_ZN18IRQSongHistoryInfoC1Ev @ 11 NONAME
	_ZN18IRQSongHistoryInfoC2Ev @ 12 NONAME
	_ZN18IRQSongHistoryInfoD1Ev @ 13 NONAME
	_ZN18IRQSongHistoryInfoD2Ev @ 14 NONAME
	_ZN20IRQSongHistoryEngine11syncHistoryEi @ 15 NONAME
	_ZN20IRQSongHistoryEngine12openInstanceEv @ 16 NONAME
	_ZN20IRQSongHistoryEngine13closeInstanceEv @ 17 NONAME
	_ZN20IRQSongHistoryEngine13deleteOneItemEi @ 18 NONAME
	_ZN20IRQSongHistoryEngine13getAllHistoryER5QListIP18IRQSongHistoryInfoE @ 19 NONAME
	_ZN20IRQSongHistoryEngine15clearAllHistoryEv @ 20 NONAME
	_ZN20IRQSongHistoryEngine17getAllSongHistoryER5QListIP11IRQSongInfoE @ 21 NONAME
	_ZN20IRQSongHistoryEngine19clearAllSongHistoryEv @ 22 NONAME
	_ZN20IRQSongHistoryEngine19updateSongHistoryDbEiRK7QStringS2_S2_S2_S2_S2_S2_ @ 23 NONAME
	_ZN20IRQSongHistoryEngine22handleMetaDataReceivedERK11IRQMetaDataRK9IRQPreset @ 24 NONAME
	_ZN20IRQSongHistoryEngine24deleteOneSongHistoryItemEi @ 25 NONAME
	_ZN20IRQSongHistoryEngine26handleSongMetaDataReceivedERK11IRQMetaDataR7QString @ 26 NONAME
	_ZN20IRQSongHistoryEngine27handleSongMetaDataReceivedLERK11IRQMetaDataR7QString @ 27 NONAME
	_ZNK11IRQSongInfo11getSongNameEv @ 28 NONAME
	_ZNK11IRQSongInfo13getArtistNameEv @ 29 NONAME
	_ZNK11IRQSongInfo18getMusicshopStatusEv @ 30 NONAME
	_ZNK18CIRSongHistoryInfo10GetBitrateEv @ 31 NONAME
	_ZNK18CIRSongHistoryInfo11GetImageUrlEv @ 32 NONAME
	_ZNK18CIRSongHistoryInfo11GetSongInfoEv @ 33 NONAME
	_ZNK18CIRSongHistoryInfo12GetChannelIdEv @ 34 NONAME
	_ZNK18CIRSongHistoryInfo12GetStreamUrlEv @ 35 NONAME
	_ZNK18CIRSongHistoryInfo13GetArtistInfoEv @ 36 NONAME
	_ZNK18CIRSongHistoryInfo14GetChannelDescEv @ 37 NONAME
	_ZNK18CIRSongHistoryInfo14GetChannelNameEv @ 38 NONAME
	_ZNK18CIRSongHistoryInfo14GetChannelTypeEv @ 39 NONAME
	_ZNK18CIRSongHistoryInfo21GetChannelMusicStatusEv @ 40 NONAME
	_ZNK18IRQSongHistoryInfo10getBitrateEv @ 41 NONAME
	_ZNK18IRQSongHistoryInfo11getImageUrlEv @ 42 NONAME
	_ZNK18IRQSongHistoryInfo11getSongNameEv @ 43 NONAME
	_ZNK18IRQSongHistoryInfo12getChannelIdEv @ 44 NONAME
	_ZNK18IRQSongHistoryInfo12getGenreNameEv @ 45 NONAME
	_ZNK18IRQSongHistoryInfo12getStreamUrlEv @ 46 NONAME
	_ZNK18IRQSongHistoryInfo13getArtistNameEv @ 47 NONAME
	_ZNK18IRQSongHistoryInfo14getChannelDescEv @ 48 NONAME
	_ZNK18IRQSongHistoryInfo14getChannelNameEv @ 49 NONAME
	_ZNK18IRQSongHistoryInfo14getChannelTypeEv @ 50 NONAME
	_ZNK18IRQSongHistoryInfo14getCountryNameEv @ 51 NONAME
	_ZNK18IRQSongHistoryInfo15getLanguageNameEv @ 52 NONAME
	_ZNK18IRQSongHistoryInfo19getMusicStoreStatusEv @ 53 NONAME

