EXPORTS
	?getChannelId@IRDBWrapper@@QAEPAV?$QList@I@@PBV?$QMap@IVQString@@@@0@Z @ 1 NONAME ; class QList<unsigned int> * IRDBWrapper::getChannelId(class QMap<unsigned int, class QString> const *, class QMap<unsigned int, class QString> const *)
	??_EIRDBWrapper@@UAE@I@Z @ 2 NONAME ; IRDBWrapper::~IRDBWrapper(unsigned int)
	??_EsearchRltWrapper@@UAE@I@Z @ 3 NONAME ; searchRltWrapper::~searchRltWrapper(unsigned int)
	?combineDeleteStr@IRDBWrapper@@IAEXPBV?$QMap@IVQString@@@@0PBVQString@@AAV3@@Z @ 4 NONAME ; void IRDBWrapper::combineDeleteStr(class QMap<unsigned int, class QString> const *, class QMap<unsigned int, class QString> const *, class QString const *, class QString &)
	?srhChannelId@searchRltWrapper@@AAEIAAVQString@@PBV?$QMap@IVQString@@@@1@Z @ 5 NONAME ; unsigned int searchRltWrapper::srhChannelId(class QString &, class QMap<unsigned int, class QString> const *, class QMap<unsigned int, class QString> const *)
	??0urlInfoWrapper@@QAE@XZ @ 6 NONAME ; urlInfoWrapper::urlInfoWrapper(void)
	??1imgWrapper@@UAE@XZ @ 7 NONAME ; imgWrapper::~imgWrapper(void)
	??0channelHistoryWrapper@@QAE@XZ @ 8 NONAME ; channelHistoryWrapper::channelHistoryWrapper(void)
	??0IRDBWrapper@@QAE@XZ @ 9 NONAME ; IRDBWrapper::IRDBWrapper(void)
	?getImg@imgWrapper@@QAEPAV?$QList@PAVQVariant@@@@PBV?$QMap@IVQString@@@@0@Z @ 10 NONAME ; class QList<class QVariant *> * imgWrapper::getImg(class QMap<unsigned int, class QString> const *, class QMap<unsigned int, class QString> const *)
	?loadDataOfChannelIdCB@IRDBWrapper@@AAE_NAAVQSqlQuery@@PAV?$QList@I@@@Z @ 11 NONAME ; bool IRDBWrapper::loadDataOfChannelIdCB(class QSqlQuery &, class QList<unsigned int> *)
	?getIRDB@IRDBWrapper@@IAEPAV?$QList@PAVQVariant@@@@PBV?$QMap@IVQString@@@@0@Z @ 12 NONAME ; class QList<class QVariant *> * IRDBWrapper::getIRDB(class QMap<unsigned int, class QString> const *, class QMap<unsigned int, class QString> const *)
	?combinePutStr@IRDBWrapper@@IAEXPBV?$QMap@IVQString@@@@PBVQString@@AAV3@2PBV?$QMap@IVQByteArray@@@@PAV?$QList@VQByteArray@@@@@Z @ 13 NONAME ; void IRDBWrapper::combinePutStr(class QMap<unsigned int, class QString> const *, class QString const *, class QString &, class QString &, class QMap<unsigned int, class QByteArray> const *, class QList<class QByteArray> *)
	??1searchRltWrapper@@UAE@XZ @ 14 NONAME ; searchRltWrapper::~searchRltWrapper(void)
	?putChannelHistory@channelHistoryWrapper@@QAE_NPBV?$QMap@IVQString@@@@PAIPBV?$QMap@IVQByteArray@@@@00@Z @ 15 NONAME ; bool channelHistoryWrapper::putChannelHistory(class QMap<unsigned int, class QString> const *, unsigned int *, class QMap<unsigned int, class QByteArray> const *, class QMap<unsigned int, class QString> const *, class QMap<unsigned int, class QString> const *)
	??1urlInfoWrapper@@UAE@XZ @ 16 NONAME ; urlInfoWrapper::~urlInfoWrapper(void)
	?getIRTableCB@songHistoryWrapper@@EAE_NAAVQSqlQuery@@PAV?$QList@PAVQVariant@@@@@Z @ 17 NONAME ; bool songHistoryWrapper::getIRTableCB(class QSqlQuery &, class QList<class QVariant *> *)
	?deleteSongHistory@songHistoryWrapper@@QAE_NPBV?$QMap@IVQString@@@@0@Z @ 18 NONAME ; bool songHistoryWrapper::deleteSongHistory(class QMap<unsigned int, class QString> const *, class QMap<unsigned int, class QString> const *)
	?resetUrlInfo@urlInfoWrapper@@QAE_NPBV?$QMap@VQString@@I@@ABI@Z @ 19 NONAME ; bool urlInfoWrapper::resetUrlInfo(class QMap<class QString, unsigned int> const *, unsigned int const &)
	?getIRTableCB@searchRltWrapper@@EAE_NAAVQSqlQuery@@PAV?$QList@PAVQVariant@@@@@Z @ 20 NONAME ; bool searchRltWrapper::getIRTableCB(class QSqlQuery &, class QList<class QVariant *> *)
	?getIRTableCB@imgWrapper@@EAE_NAAVQSqlQuery@@PAV?$QList@PAVQVariant@@@@@Z @ 21 NONAME ; bool imgWrapper::getIRTableCB(class QSqlQuery &, class QList<class QVariant *> *)
	?combineGetStr@IRDBWrapper@@IAEXPBV?$QMap@IVQString@@@@0PBVQString@@AAV3@@Z @ 22 NONAME ; void IRDBWrapper::combineGetStr(class QMap<unsigned int, class QString> const *, class QMap<unsigned int, class QString> const *, class QString const *, class QString &)
	??1channelHistoryWrapper@@UAE@XZ @ 23 NONAME ; channelHistoryWrapper::~channelHistoryWrapper(void)
	?deleteFavorites@favoritesWrapper@@QAE_NPBV?$QMap@IVQString@@@@0@Z @ 24 NONAME ; bool favoritesWrapper::deleteFavorites(class QMap<unsigned int, class QString> const *, class QMap<unsigned int, class QString> const *)
	?combineCondStr@IRDBWrapper@@IAEXPBV?$QMap@IVQString@@@@0PBVQString@@AAV3@@Z @ 25 NONAME ; void IRDBWrapper::combineCondStr(class QMap<unsigned int, class QString> const *, class QMap<unsigned int, class QString> const *, class QString const *, class QString &)
	??0searchRltWrapper@@QAE@XZ @ 26 NONAME ; searchRltWrapper::searchRltWrapper(void)
	??0songHistoryWrapper@@QAE@XZ @ 27 NONAME ; songHistoryWrapper::songHistoryWrapper(void)
	?putFavorites@favoritesWrapper@@QAE_NPAV?$QMap@IVQString@@@@AA_N@Z @ 28 NONAME ; bool favoritesWrapper::putFavorites(class QMap<unsigned int, class QString> *, bool &)
	??_EfavoritesWrapper@@UAE@I@Z @ 29 NONAME ; favoritesWrapper::~favoritesWrapper(unsigned int)
	?getIRTableCB@IRDBWrapper@@EAE_NAAVQSqlQuery@@PAV?$QList@PAVQVariant@@@@@Z @ 30 NONAME ; bool IRDBWrapper::getIRTableCB(class QSqlQuery &, class QList<class QVariant *> *)
	?getChannelHistory@channelHistoryWrapper@@QAEPAV?$QList@PAVQVariant@@@@PBV?$QMap@IVQString@@@@0@Z @ 31 NONAME ; class QList<class QVariant *> * channelHistoryWrapper::getChannelHistory(class QMap<unsigned int, class QString> const *, class QMap<unsigned int, class QString> const *)
	?srhChannelId@channelHistoryWrapper@@AAEIAAVQString@@PBV?$QMap@IVQString@@@@1@Z @ 32 NONAME ; unsigned int channelHistoryWrapper::srhChannelId(class QString &, class QMap<unsigned int, class QString> const *, class QMap<unsigned int, class QString> const *)
	??_EsongHistoryWrapper@@UAE@I@Z @ 33 NONAME ; songHistoryWrapper::~songHistoryWrapper(unsigned int)
	??1favoritesWrapper@@UAE@XZ @ 34 NONAME ; favoritesWrapper::~favoritesWrapper(void)
	??_EchannelHistoryWrapper@@UAE@I@Z @ 35 NONAME ; channelHistoryWrapper::~channelHistoryWrapper(unsigned int)
	?putSongHistory@songHistoryWrapper@@QAE_NPBV?$QMap@IVQString@@@@00@Z @ 36 NONAME ; bool songHistoryWrapper::putSongHistory(class QMap<unsigned int, class QString> const *, class QMap<unsigned int, class QString> const *, class QMap<unsigned int, class QString> const *)
	?getFavorites@favoritesWrapper@@QAEPAV?$QList@PAVQVariant@@@@PBV?$QMap@IVQString@@@@0@Z @ 37 NONAME ; class QList<class QVariant *> * favoritesWrapper::getFavorites(class QMap<unsigned int, class QString> const *, class QMap<unsigned int, class QString> const *)
	?putSearchRlt@searchRltWrapper@@QAE_NPBV?$QMap@IVQString@@@@PBV?$QMap@IVQByteArray@@@@00@Z @ 38 NONAME ; bool searchRltWrapper::putSearchRlt(class QMap<unsigned int, class QString> const *, class QMap<unsigned int, class QByteArray> const *, class QMap<unsigned int, class QString> const *, class QMap<unsigned int, class QString> const *)
	?loadDataOfIRDBCB@IRDBWrapper@@AAE_NAAVQSqlQuery@@PAV?$QList@PAVQVariant@@@@@Z @ 39 NONAME ; bool IRDBWrapper::loadDataOfIRDBCB(class QSqlQuery &, class QList<class QVariant *> *)
	?getUrlInfo@urlInfoWrapper@@QAEPAV?$QList@PAVQVariant@@@@PBV?$QMap@IVQString@@@@0@Z @ 40 NONAME ; class QList<class QVariant *> * urlInfoWrapper::getUrlInfo(class QMap<unsigned int, class QString> const *, class QMap<unsigned int, class QString> const *)
	??_EurlInfoWrapper@@UAE@I@Z @ 41 NONAME ; urlInfoWrapper::~urlInfoWrapper(unsigned int)
	??1songHistoryWrapper@@UAE@XZ @ 42 NONAME ; songHistoryWrapper::~songHistoryWrapper(void)
	?getIRTableCB@favoritesWrapper@@EAE_NAAVQSqlQuery@@PAV?$QList@PAVQVariant@@@@@Z @ 43 NONAME ; bool favoritesWrapper::getIRTableCB(class QSqlQuery &, class QList<class QVariant *> *)
	??_EimgWrapper@@UAE@I@Z @ 44 NONAME ; imgWrapper::~imgWrapper(unsigned int)
	?combineInsertStr@urlInfoWrapper@@AAEXPBV?$QMap@VQString@@I@@ABIAAVQStringList@@@Z @ 45 NONAME ; void urlInfoWrapper::combineInsertStr(class QMap<class QString, unsigned int> const *, unsigned int const &, class QStringList &)
	?deleteChannelHistory@channelHistoryWrapper@@QAE_NPBV?$QMap@IVQString@@@@0@Z @ 46 NONAME ; bool channelHistoryWrapper::deleteChannelHistory(class QMap<unsigned int, class QString> const *, class QMap<unsigned int, class QString> const *)
	?getIRTableCB@channelHistoryWrapper@@EAE_NAAVQSqlQuery@@PAV?$QList@PAVQVariant@@@@@Z @ 47 NONAME ; bool channelHistoryWrapper::getIRTableCB(class QSqlQuery &, class QList<class QVariant *> *)
	??1IRDBWrapper@@UAE@XZ @ 48 NONAME ; IRDBWrapper::~IRDBWrapper(void)
	?getSearchRlt@searchRltWrapper@@QAEPAV?$QList@PAVQVariant@@@@PBV?$QMap@IVQString@@@@0@Z @ 49 NONAME ; class QList<class QVariant *> * searchRltWrapper::getSearchRlt(class QMap<unsigned int, class QString> const *, class QMap<unsigned int, class QString> const *)
	?deleteSearchRlt@searchRltWrapper@@QAE_NPBV?$QMap@IVQString@@@@0@Z @ 50 NONAME ; bool searchRltWrapper::deleteSearchRlt(class QMap<unsigned int, class QString> const *, class QMap<unsigned int, class QString> const *)
	?updateImg@imgWrapper@@QAE_NPBV?$QMap@IVQString@@@@ABIPBV?$QMap@IVQByteArray@@@@@Z @ 51 NONAME ; bool imgWrapper::updateImg(class QMap<unsigned int, class QString> const *, unsigned int const &, class QMap<unsigned int, class QByteArray> const *)
	??0favoritesWrapper@@QAE@XZ @ 52 NONAME ; favoritesWrapper::favoritesWrapper(void)
	??0imgWrapper@@QAE@XZ @ 53 NONAME ; imgWrapper::imgWrapper(void)
	?getSongHistory@songHistoryWrapper@@QAEPAV?$QList@PAVQVariant@@@@PBV?$QMap@IVQString@@@@0@Z @ 54 NONAME ; class QList<class QVariant *> * songHistoryWrapper::getSongHistory(class QMap<unsigned int, class QString> const *, class QMap<unsigned int, class QString> const *)
	?getIRTableCB@urlInfoWrapper@@EAE_NAAVQSqlQuery@@PAV?$QList@PAVQVariant@@@@@Z @ 55 NONAME ; bool urlInfoWrapper::getIRTableCB(class QSqlQuery &, class QList<class QVariant *> *)

