EXPORTS
	?setStereoMode@IRQSettings@@QAEXH@Z @ 1 NONAME ; void IRQSettings::setStereoMode(int)
	?setFlagIfAnyFav@IRQSettings@@QAEXXZ @ 2 NONAME ; void IRQSettings::setFlagIfAnyFav(void)
	?setApId@IRQSettings@@QAEXK@Z @ 3 NONAME ; void IRQSettings::setApId(unsigned long)
	?getNetworkId@IRQSettings@@QAE_NAAK@Z @ 4 NONAME ; bool IRQSettings::getNetworkId(unsigned long &)
	?getApId@IRQSettings@@QAE_NAAK@Z @ 5 NONAME ; bool IRQSettings::getApId(unsigned long &)
	?get3GBitrateQuality@IRQSettings@@QAEHXZ @ 6 NONAME ; int IRQSettings::get3GBitrateQuality(void)
	?setVolumeSetting@IRQSettings@@QAEXH@Z @ 7 NONAME ; void IRQSettings::setVolumeSetting(int)
	?getStickyViewFlag@IRQSettings@@QAE_NAA_N@Z @ 8 NONAME ; bool IRQSettings::getStickyViewFlag(bool &)
	?setManuallyAddedChId@IRQSettings@@QAEXXZ @ 9 NONAME ; void IRQSettings::setManuallyAddedChId(void)
	?setDisplayAccessPoint@IRQSettings@@QAEXXZ @ 10 NONAME ; void IRQSettings::setDisplayAccessPoint(void)
	?timeCorrection@IRQSettings@@QAEHXZ @ 11 NONAME ; int IRQSettings::timeCorrection(void)
	?setUserSavedApSettings@IRQSettings@@QAEXKKK@Z @ 12 NONAME ; void IRQSettings::setUserSavedApSettings(unsigned long, unsigned long, unsigned long)
	?setFlagCostWarning@IRQSettings@@QAEXXZ @ 13 NONAME ; void IRQSettings::setFlagCostWarning(void)
	?getStartingViewId@IRQSettings@@QAE_NAAW4TIRViewId@@@Z @ 14 NONAME ; bool IRQSettings::getStartingViewId(enum TIRViewId &)
	?setUpdateAvailable@IRQSettings@@QAEXXZ @ 15 NONAME ; void IRQSettings::setUpdateAvailable(void)
	?reSetFlagTermsAndConditions@IRQSettings@@QAEXXZ @ 16 NONAME ; void IRQSettings::reSetFlagTermsAndConditions(void)
	?getSongHistoryShow@IRQSettings@@QAEHXZ @ 17 NONAME ; int IRQSettings::getSongHistoryShow(void)
	?setUserDefinedSelection@IRQSettings@@QAEXK@Z @ 18 NONAME ; void IRQSettings::setUserDefinedSelection(unsigned long)
	?getUserSavedApSettings@IRQSettings@@QAE_NAAK00@Z @ 19 NONAME ; bool IRQSettings::getUserSavedApSettings(unsigned long &, unsigned long &, unsigned long &)
	?openInstance@IRQSettings@@SAPAV1@XZ @ 20 NONAME ; class IRQSettings * IRQSettings::openInstance(void)
	?setSongHistoryShow@IRQSettings@@QAEXH@Z @ 21 NONAME ; void IRQSettings::setSongHistoryShow(int)
	?setSilencePeriod@IRQSettings@@QAEXI@Z @ 22 NONAME ; void IRQSettings::setSilencePeriod(unsigned int)
	?getVolumeSetting@IRQSettings@@QAEHXZ @ 23 NONAME ; int IRQSettings::getVolumeSetting(void)
	?closeInstance@IRQSettings@@QAEXXZ @ 24 NONAME ; void IRQSettings::closeInstance(void)
	?setGPRSBitrateQuality@IRQSettings@@QAEXH@Z @ 25 NONAME ; void IRQSettings::setGPRSBitrateQuality(int)
	?getStereoMode@IRQSettings@@QAEHXZ @ 26 NONAME ; int IRQSettings::getStereoMode(void)
	?getISDSBaseUrl@IRQSettings@@QAE_NAAVQString@@@Z @ 27 NONAME ; bool IRQSettings::getISDSBaseUrl(class QString &)
	?setStartingViewId@IRQSettings@@QAEXK@Z @ 28 NONAME ; void IRQSettings::setStartingViewId(unsigned long)
	?setFlagTermsAndConditions@IRQSettings@@QAEXXZ @ 29 NONAME ; void IRQSettings::setFlagTermsAndConditions(void)
	?setDestinationId@IRQSettings@@QAEXK@Z @ 30 NONAME ; void IRQSettings::setDestinationId(unsigned long)
	?setTimeCorrection@IRQSettings@@QAEXH@Z @ 31 NONAME ; void IRQSettings::setTimeCorrection(int)
	?getIrappVersion@IRQSettings@@QAE_NAAVQString@@@Z @ 32 NONAME ; bool IRQSettings::getIrappVersion(class QString &)
	?set3GBitrateQuality@IRQSettings@@QAEXH@Z @ 33 NONAME ; void IRQSettings::set3GBitrateQuality(int)
	?privatePath@IRQSettings@@QAE?AVQString@@XZ @ 34 NONAME ; class QString IRQSettings::privatePath(void)
	?setPreferredQuality@IRQSettings@@QAEXW4IRQPreferredQuality@@@Z @ 35 NONAME ; void IRQSettings::setPreferredQuality(enum IRQPreferredQuality)
	?displayAccessPoint@IRQSettings@@QAE_NAA_N@Z @ 36 NONAME ; bool IRQSettings::displayAccessPoint(bool &)
	?getLogRunningNo@IRQSettings@@QAEHXZ @ 37 NONAME ; int IRQSettings::getLogRunningNo(void)
	?getSilencePeriod@IRQSettings@@QAE_NAAI@Z @ 38 NONAME ; bool IRQSettings::getSilencePeriod(unsigned int &)
	?getTimeOut@IRQSettings@@QAEHXZ @ 39 NONAME ; int IRQSettings::getTimeOut(void)
	?getStartingViewParameter@IRQSettings@@QAE_NAAW4TIRViewParameter@@@Z @ 40 NONAME ; bool IRQSettings::getStartingViewParameter(enum TIRViewParameter &)
	?getGPRSBitrateQuality@IRQSettings@@QAEHXZ @ 41 NONAME ; int IRQSettings::getGPRSBitrateQuality(void)
	?setSilencePeriodStart@IRQSettings@@QAEXABVQString@@@Z @ 42 NONAME ; void IRQSettings::setSilencePeriodStart(class QString const &)
	?reSetDisplayAccessPoint@IRQSettings@@QAEXXZ @ 43 NONAME ; void IRQSettings::reSetDisplayAccessPoint(void)
	?isUpdateAvailable@IRQSettings@@QAE_NAA_N@Z @ 44 NONAME ; bool IRQSettings::isUpdateAvailable(bool &)
	?setBearerId@IRQSettings@@QAEXK@Z @ 45 NONAME ; void IRQSettings::setBearerId(unsigned long)
	?setIrappVersion@IRQSettings@@QAEXABVQString@@@Z @ 46 NONAME ; void IRQSettings::setIrappVersion(class QString const &)
	?getIRID@IRQSettings@@QAE_NAAVQString@@@Z @ 47 NONAME ; bool IRQSettings::getIRID(class QString &)
	?setStickyViewFlag@IRQSettings@@QAEX_N@Z @ 48 NONAME ; void IRQSettings::setStickyViewFlag(bool)
	?getPreferredQuality@IRQSettings@@QBE?AW4IRQPreferredQuality@@XZ @ 49 NONAME ; enum IRQPreferredQuality IRQSettings::getPreferredQuality(void) const
	?getUserDefinedSelection@IRQSettings@@QAE_NAAW4TNetworkConnection@@@Z @ 50 NONAME ; bool IRQSettings::getUserDefinedSelection(enum TNetworkConnection &)
	?setLogRunningNo@IRQSettings@@QAEXXZ @ 51 NONAME ; void IRQSettings::setLogRunningNo(void)
	?maxPresetCount@IRQSettings@@QAEHXZ @ 52 NONAME ; int IRQSettings::maxPresetCount(void)
	?setIRID@IRQSettings@@QAEXABVQString@@@Z @ 53 NONAME ; void IRQSettings::setIRID(class QString const &)
	?setWiFiBitrateQuality@IRQSettings@@QAEXH@Z @ 54 NONAME ; void IRQSettings::setWiFiBitrateQuality(int)
	?getWiFiBitrateQuality@IRQSettings@@QAEHXZ @ 55 NONAME ; int IRQSettings::getWiFiBitrateQuality(void)
	?subscriberId@IRQSettings@@QAE_NAAV?$TBuf@$0P@@@@Z @ 56 NONAME ; bool IRQSettings::subscriberId(class TBuf<15> &)
	?setNetworkId@IRQSettings@@QAEXK@Z @ 57 NONAME ; void IRQSettings::setNetworkId(unsigned long)
	?setMaxPresetCount@IRQSettings@@QAEXH@Z @ 58 NONAME ; void IRQSettings::setMaxPresetCount(int)
	?setISDSBaseUrl@IRQSettings@@QAEXABVQString@@@Z @ 59 NONAME ; void IRQSettings::setISDSBaseUrl(class QString const &)
	?getManuallyAddedChId@IRQSettings@@QAEHXZ @ 60 NONAME ; int IRQSettings::getManuallyAddedChId(void)
	?getBearerId@IRQSettings@@QAE_NAAK@Z @ 61 NONAME ; bool IRQSettings::getBearerId(unsigned long &)
	?getDestinationId@IRQSettings@@QAE_NAAK@Z @ 62 NONAME ; bool IRQSettings::getDestinationId(unsigned long &)
	?isFlagCostWarning@IRQSettings@@QAE_NAA_N@Z @ 63 NONAME ; bool IRQSettings::isFlagCostWarning(bool &)
	?setTimeOut@IRQSettings@@QAEXH@Z @ 64 NONAME ; void IRQSettings::setTimeOut(int)
	?getSilencePeriodStart@IRQSettings@@QAE_NAAVQString@@@Z @ 65 NONAME ; bool IRQSettings::getSilencePeriodStart(class QString &)
	?setStartingViewParameter@IRQSettings@@QAEXK@Z @ 66 NONAME ; void IRQSettings::setStartingViewParameter(unsigned long)
	?reSetFlagCostWarning@IRQSettings@@QAEXXZ @ 67 NONAME ; void IRQSettings::reSetFlagCostWarning(void)
	?isFlagIfAnyFav@IRQSettings@@QAE_NAA_N@Z @ 68 NONAME ; bool IRQSettings::isFlagIfAnyFav(bool &)
	?setSubscriberId@IRQSettings@@QAEXABV?$TBuf@$0P@@@@Z @ 69 NONAME ; void IRQSettings::setSubscriberId(class TBuf<15> const &)
	?reSetUpdateAvailable@IRQSettings@@QAEXXZ @ 70 NONAME ; void IRQSettings::reSetUpdateAvailable(void)
	?isFlagTermsAndConditions@IRQSettings@@QAE_NAA_N@Z @ 71 NONAME ; bool IRQSettings::isFlagTermsAndConditions(bool &)
	?getGlobalAdvFlag@IRQSettings@@QAE_NAA_N@Z @ 72  NONAME ; bool IRQSettings::getGlobalAdvFlag(bool &)

